; Function Attrs: mustprogress nounwind uwtable
define hidden void @_ZN5ZStatC2Ev(ptr noundef nonnull align 8 dereferenceable(1056) %0) unnamed_addr #0 align 2 {
  tail call void @_ZN18ConcurrentGCThreadC2Ev(ptr noundef nonnull align 8 dereferenceable(918) %0) #20
  store ptr getelementptr inbounds inrange(-16, 256) (i8, ptr @_ZTV5ZStat, i64 16), ptr %0, align 8
  %2 = getelementptr inbounds i8, ptr %0, i64 920
  tail call void @_ZN10ZMetronomeC1Em(ptr noundef nonnull align 8 dereferenceable(129) %2, i64 noundef 1) #20
  tail call void (ptr, ptr, ...) @_ZN11NamedThread8set_nameEPKcz(ptr noundef nonnull align 8 dereferenceable(916) %0, ptr noundef nonnull @.str.35) #20
  tail call void @_ZN18ConcurrentGCThread16create_and_startE14ThreadPriority(ptr noundef nonnull align 8 dereferenceable(918) %0, i32 noundef 9) #20
  %3 = tail call noundef i64 @_ZN2os15elapsed_counterEv() #20
  store i64 %3, ptr @_ZN21ZStatMutatorAllocRate17_last_sample_timeE, align 8
  %4 = tail call noundef ptr @_Z12AllocateHeapm8MEMFLAGSN17AllocFailStrategy13AllocFailEnumE(i64 noundef 40, i8 noundef zeroext 5, i32 noundef 0) #20
  tail call void @llvm.memset.p0.i64(ptr noundef nonnull align 8 dereferenceable(40) %4, i8 0, i64 40, i1 false)
  tail call void @_ZN13PlatformMutexC1Ev(ptr noundef nonnull align 8 dereferenceable(40) %4) #20
  store ptr %4, ptr @_ZN21ZStatMutatorAllocRate10_stat_lockE, align 8
  %5 = load ptr, ptr @_ZN5ZHeap5_heapE, align 8
  %6 = tail call noundef i64 @_ZNK5ZHeap17soft_max_capacityEv(ptr noundef nonnull align 64 dereferenceable(15937) %5) #20
  %7 = lshr i64 %6, 7
  %8 = add nuw nsw i64 %7, 2097151
  %9 = and i64 %8, 288230376149614592
  store volatile i64 %9, ptr @_ZN21ZStatMutatorAllocRate17_sampling_granuleE, align 8
  ret void
}